target datalayout = "e-m:e-p270:32:32-p271:32:32-p272:64:64-i64:64-i128:128-f80:128-n8:16:32:64-S128"
target triple = "x86_64-pc-linux-gnu"

%struct._archiveHandle = type { %struct.Archive, i32, ptr, ptr, i64, i64, i32, %struct.sqlparseInfo, i64, i32, ptr, i64, i64, i64, ptr, ptr, ptr, ptr, ptr, ptr, ptr, ptr, ptr, ptr, ptr, ptr, ptr, ptr, ptr, ptr, ptr, ptr, ptr, ptr, ptr, ptr, ptr, ptr, ptr, ptr, ptr, ptr, ptr, ptr, i32, i32, i8, i32, i8, i32, ptr, ptr, ptr, ptr, i32, i32, ptr, ptr, ptr, %struct.pg_compress_specification, i8, i32, i32, ptr, ptr, ptr, ptr, ptr, i32, ptr, i64, i64, i32, i32, i32, i32, ptr, ptr }
%struct.Archive = type { ptr, ptr, i32, ptr, i32, i8, i32, i32, i32, ptr, i32, i8, ptr, ptr, i8, i32, ptr }
%struct.sqlparseInfo = type { i32, i8, ptr }
%struct.pg_compress_specification = type { i32, i32, i32, i32, i8, ptr }

@.str.16 = private unnamed_addr constant [44 x i8] c"could not read from input file: end of file\00", align 1
@.str.17 = private unnamed_addr constant [35 x i8] c"could not read from input file: %m\00", align 1

; Function Attrs: nounwind uwtable
define internal void @_ReadBuf(ptr noundef %0, ptr noundef %1, i64 noundef %2) #0 {
  %4 = alloca ptr, align 8
  %5 = alloca ptr, align 8
  %6 = alloca i64, align 8
  store ptr %0, ptr %4, align 8
  store ptr %1, ptr %5, align 8
  store i64 %2, ptr %6, align 8
  %7 = load ptr, ptr %5, align 8
  %8 = load i64, ptr %6, align 8
  %9 = load ptr, ptr %4, align 8
  %10 = getelementptr inbounds nuw %struct._archiveHandle, ptr %9, i32 0, i32 51
  %11 = load ptr, ptr %10, align 8
  %12 = call i64 @fread(ptr noundef %7, i64 noundef 1, i64 noundef %8, ptr noundef %11)
  %13 = load i64, ptr %6, align 8
  %14 = icmp ne i64 %12, %13
  br i1 %14, label %15, label %30

15:                                               ; preds = %3
  br label %16

16:                                               ; preds = %15
  %17 = load ptr, ptr %4, align 8
  %18 = getelementptr inbounds nuw %struct._archiveHandle, ptr %17, i32 0, i32 51
  %19 = load ptr, ptr %18, align 8
  %20 = call i32 @feof(ptr noundef %19) #7
  %21 = icmp ne i32 %20, 0
  br i1 %21, label %22, label %25

22:                                               ; preds = %16
  br label %23

23:                                               ; preds = %22
  call void (i32, i32, ptr, ...) @pg_log_generic(i32 noundef 4, i32 noundef 0, ptr noundef @.str.16)
  call void @exit_nicely(i32 noundef 1) #9
  unreachable

24:                                               ; No predecessors!
  br label %28

25:                                               ; preds = %16
  br label %26

26:                                               ; preds = %25
  call void (i32, i32, ptr, ...) @pg_log_generic(i32 noundef 4, i32 noundef 0, ptr noundef @.str.17)
  call void @exit_nicely(i32 noundef 1) #9
  unreachable

27:                                               ; No predecessors!
  br label %28

28:                                               ; preds = %27, %24
  br label %29

29:                                               ; preds = %28
  br label %30

30:                                               ; preds = %29, %3
  ret void
}

; Function Attrs: nounwind uwtable
define internal i64 @_CustomReadFunc(ptr noundef %0, ptr noundef %1, ptr noundef %2) #0 {
  %4 = alloca i64, align 8
  %5 = alloca ptr, align 8
  %6 = alloca ptr, align 8
  %7 = alloca ptr, align 8
  %8 = alloca i64, align 8
  %9 = alloca i32, align 4
  store ptr %0, ptr %5, align 8
  store ptr %1, ptr %6, align 8
  store ptr %2, ptr %7, align 8
  call void @llvm.lifetime.start.p0(i64 8, ptr %8) #7
  %10 = load ptr, ptr %5, align 8
  %11 = call i32 @ReadInt(ptr noundef %10)
  %12 = sext i32 %11 to i64
  store i64 %12, ptr %8, align 8
  %13 = load i64, ptr %8, align 8
  %14 = icmp eq i64 %13, 0
  br i1 %14, label %15, label %16

15:                                               ; preds = %3
  store i64 0, ptr %4, align 8
  store i32 1, ptr %9, align 4
  br label %35

16:                                               ; preds = %3
  %17 = load i64, ptr %8, align 8
  %18 = load ptr, ptr %7, align 8
  %19 = load i64, ptr %18, align 8
  %20 = icmp ugt i64 %17, %19
  br i1 %20, label %21, label %29

21:                                               ; preds = %16
  %22 = load ptr, ptr %6, align 8
  %23 = load ptr, ptr %22, align 8
  call void @free(ptr noundef %23) #7
  %24 = load i64, ptr %8, align 8
  %25 = call ptr @pg_malloc(i64 noundef %24)
  %26 = load ptr, ptr %6, align 8
  store ptr %25, ptr %26, align 8
  %27 = load i64, ptr %8, align 8
  %28 = load ptr, ptr %7, align 8
  store i64 %27, ptr %28, align 8
  br label %29

29:                                               ; preds = %21, %16
  %30 = load ptr, ptr %5, align 8
  %31 = load ptr, ptr %6, align 8
  %32 = load ptr, ptr %31, align 8
  %33 = load i64, ptr %8, align 8
  call void @_ReadBuf(ptr noundef %30, ptr noundef %32, i64 noundef %33)
  %34 = load i64, ptr %8, align 8
  store i64 %34, ptr %4, align 8
  store i32 1, ptr %9, align 4
  br label %35

35:                                               ; preds = %29, %15
  call void @llvm.lifetime.end.p0(i64 8, ptr %8) #7
  %36 = load i64, ptr %4, align 8
  ret i64 %36
}