; Function Attrs: nounwind uwtable
define internal range(i64 -2147483648, 2147483648) i64 @_CustomReadFunc(ptr noundef %0, ptr noundef captures(none) %1, ptr noundef captures(none) %2) #0 {
  %4 = tail call i32 @ReadInt(ptr noundef %0) #7
  %5 = sext i32 %4 to i64
  %6 = icmp eq i32 %4, 0
  br i1 %6, label %_ReadBuf.exit, label %7

7:                                                ; preds = %3
  %8 = load i64, ptr %2, align 8
  %9 = icmp ult i64 %8, %5
  br i1 %9, label %10, label %13

10:                                               ; preds = %7
  %11 = load ptr, ptr %1, align 8
  tail call void @free(ptr noundef %11) #7
  %12 = tail call ptr @pg_malloc(i64 noundef %5) #7
  store ptr %12, ptr %1, align 8
  store i64 %5, ptr %2, align 8
  br label %13

13:                                               ; preds = %10, %7
  %14 = load ptr, ptr %1, align 8
  %15 = getelementptr inbounds nuw i8, ptr %0, i64 488
  %16 = load ptr, ptr %15, align 8
  %17 = tail call i64 @fread(ptr noundef %14, i64 noundef 1, i64 noundef %5, ptr noundef %16)
  %.not.i = icmp eq i64 %17, %5
  br i1 %.not.i, label %_ReadBuf.exit, label %18

18:                                               ; preds = %13
  %19 = load ptr, ptr %15, align 8
  %20 = tail call i32 @feof(ptr noundef %19) #7
  %.not4.i = icmp eq i32 %20, 0
  br i1 %.not4.i, label %22, label %21

21:                                               ; preds = %18
  tail call void (i32, i32, ptr, ...) @pg_log_generic(i32 noundef 4, i32 noundef 0, ptr noundef nonnull @.str.16) #7
  tail call void @exit_nicely(i32 noundef 1) #8
  unreachable

22:                                               ; preds = %18
  tail call void (i32, i32, ptr, ...) @pg_log_generic(i32 noundef 4, i32 noundef 0, ptr noundef nonnull @.str.17) #7
  tail call void @exit_nicely(i32 noundef 1) #8
  unreachable

_ReadBuf.exit:                                    ; preds = %13, %3
  ret i64 %5
}